target datalayout = "e-m:e-p270:32:32-p271:32:32-p272:64:64-i64:64-i128:128-f80:128-n8:16:32:64-S128"
target triple = "x86_64-unknown-linux-gnu"

%"class.absl::lts_20230802::Status" = type { i64 }
%struct.grpc_resolved_address = type { [128 x i8], i32 }
%struct.sockaddr = type { i16, [14 x i8] }

@_ZL17g_probe_ipv6_once = internal global i32 0, align 4
@_ZL25g_ipv6_loopback_available = internal global i32 0, align 4

; Function Attrs: mustprogress nounwind uwtable
define linkonce_odr noundef i64 @_ZN4absl12lts_202308026Status16CodeToInlinedRepENS0_10StatusCodeE(i32 noundef %code) #5 comdat align 2 {
entry:
  %code.addr = alloca i32, align 4
  store i32 %code, ptr %code.addr, align 4
  %0 = load i32, ptr %code.addr, align 4
  %conv = sext i32 %0 to i64
  %shl = shl i64 %conv, 2
  ret i64 %shl
}

; Function Attrs: mustprogress nounwind uwtable
define linkonce_odr void @_ZN4absl12lts_202308026StatusC2Ev(ptr noundef nonnull align 8 dereferenceable(8) %this) unnamed_addr #5 comdat align 2 {
entry:
  %this.addr = alloca ptr, align 8
  store ptr %this, ptr %this.addr, align 8
  %this1 = load ptr, ptr %this.addr, align 8
  %rep_ = getelementptr inbounds %"class.absl::lts_20230802::Status", ptr %this1, i32 0, i32 0
  %call = call noundef i64 @_ZN4absl12lts_202308026Status16CodeToInlinedRepENS0_10StatusCodeE(i32 noundef 0)
  store i64 %call, ptr %rep_, align 8
  ret void
}

; Function Attrs: mustprogress uwtable
define linkonce_odr void @_ZN4absl12lts_202308028OkStatusEv(ptr noalias sret(%"class.absl::lts_20230802::Status") align 8 %agg.result) #4 comdat {
entry:
  %result.ptr = alloca ptr, align 8
  store ptr %agg.result, ptr %result.ptr, align 8
  call void @_ZN4absl12lts_202308026StatusC2Ev(ptr noundef nonnull align 8 dereferenceable(8) %agg.result)
  ret void
}

; Function Attrs: mustprogress uwtable
define noundef i32 @_Z28grpc_ipv6_loopback_availablev() #4 {
entry:
  call void @gpr_once_init(ptr noundef @_ZL17g_probe_ipv6_once, ptr noundef @_ZL15probe_ipv6_oncev)
  %0 = load i32, ptr @_ZL25g_ipv6_loopback_available, align 4
  ret i32 %0
}

; Function Attrs: mustprogress uwtable
define void @_Z42grpc_create_dualstack_socket_using_factoryP19grpc_socket_factoryPK21grpc_resolved_addressiiP19grpc_dualstack_modePi(ptr noalias sret(%"class.absl::lts_20230802::Status") align 8 %agg.result, ptr noundef %factory, ptr noundef %resolved_addr, i32 noundef %type, i32 noundef %protocol, ptr noundef %dsmode, ptr noundef %newfd) #4 {
entry:
  %result.ptr = alloca ptr, align 8
  %factory.addr = alloca ptr, align 8
  %resolved_addr.addr = alloca ptr, align 8
  %type.addr = alloca i32, align 4
  %protocol.addr = alloca i32, align 4
  %dsmode.addr = alloca ptr, align 8
  %newfd.addr = alloca ptr, align 8
  %addr = alloca ptr, align 8
  %family = alloca i32, align 4
  store ptr %agg.result, ptr %result.ptr, align 8
  store ptr %factory, ptr %factory.addr, align 8
  store ptr %resolved_addr, ptr %resolved_addr.addr, align 8
  store i32 %type, ptr %type.addr, align 4
  store i32 %protocol, ptr %protocol.addr, align 4
  store ptr %dsmode, ptr %dsmode.addr, align 8
  store ptr %newfd, ptr %newfd.addr, align 8
  %0 = load ptr, ptr %resolved_addr.addr, align 8
  %addr1 = getelementptr inbounds %struct.grpc_resolved_address, ptr %0, i32 0, i32 0
  %arraydecay = getelementptr inbounds [128 x i8], ptr %addr1, i64 0, i64 0
  store ptr %arraydecay, ptr %addr, align 8
  %1 = load ptr, ptr %addr, align 8
  %sa_family = getelementptr inbounds %struct.sockaddr, ptr %1, i32 0, i32 0
  %2 = load i16, ptr %sa_family, align 2
  %conv = zext i16 %2 to i32
  store i32 %conv, ptr %family, align 4
  %3 = load i32, ptr %family, align 4
  %cmp = icmp eq i32 %3, 10
  br i1 %cmp, label %if.then, label %if.end18

if.then:                                          ; preds = %entry
  %call = call noundef i32 @_Z28grpc_ipv6_loopback_availablev()
  %tobool = icmp ne i32 %call, 0
  br i1 %tobool, label %if.then2, label %if.else

if.then2:                                         ; preds = %if.then
  %4 = load ptr, ptr %factory.addr, align 8
  %5 = load i32, ptr %family, align 4
  %6 = load i32, ptr %type.addr, align 4
  %7 = load i32, ptr %protocol.addr, align 4
  %call3 = call noundef i32 @_ZL13create_socketP19grpc_socket_factoryiii(ptr noundef %4, i32 noundef %5, i32 noundef %6, i32 noundef %7)
  %8 = load ptr, ptr %newfd.addr, align 8
  store i32 %call3, ptr %8, align 4
  br label %if.end

if.else:                                          ; preds = %if.then
  %9 = load ptr, ptr %newfd.addr, align 8
  store i32 -1, ptr %9, align 4
  %call4 = call ptr @__errno_location() #11
  store i32 97, ptr %call4, align 4
  br label %if.end

if.end:                                           ; preds = %if.else, %if.then2
  %10 = load ptr, ptr %newfd.addr, align 8
  %11 = load i32, ptr %10, align 4
  %cmp5 = icmp sge i32 %11, 0
  br i1 %cmp5, label %land.lhs.true, label %if.end9

land.lhs.true:                                    ; preds = %if.end
  %12 = load ptr, ptr %newfd.addr, align 8
  %13 = load i32, ptr %12, align 4
  %call6 = call noundef i32 @_Z25grpc_set_socket_dualstacki(i32 noundef %13)
  %tobool7 = icmp ne i32 %call6, 0
  br i1 %tobool7, label %if.then8, label %if.end9

if.then8:                                         ; preds = %land.lhs.true
  %14 = load ptr, ptr %dsmode.addr, align 8
  store i32 3, ptr %14, align 4
  call void @_ZN4absl12lts_202308028OkStatusEv(ptr sret(%"class.absl::lts_20230802::Status") align 8 %agg.result)
  br label %return

if.end9:                                          ; preds = %land.lhs.true, %if.end
  %15 = load ptr, ptr %resolved_addr.addr, align 8
  %call10 = call noundef i32 @_Z25grpc_sockaddr_is_v4mappedPK21grpc_resolved_addressPS_(ptr noundef %15, ptr noundef null)
  %tobool11 = icmp ne i32 %call10, 0
  br i1 %tobool11, label %if.end13, label %if.then12

if.then12:                                        ; preds = %if.end9
  %16 = load ptr, ptr %dsmode.addr, align 8
  store i32 2, ptr %16, align 4
  %17 = load ptr, ptr %newfd.addr, align 8
  %18 = load i32, ptr %17, align 4
  %19 = load ptr, ptr %resolved_addr.addr, align 8
  call void @_ZL12error_for_fdiPK21grpc_resolved_address(ptr sret(%"class.absl::lts_20230802::Status") align 8 %agg.result, i32 noundef %18, ptr noundef %19)
  br label %return

if.end13:                                         ; preds = %if.end9
  %20 = load ptr, ptr %newfd.addr, align 8
  %21 = load i32, ptr %20, align 4
  %cmp14 = icmp sge i32 %21, 0
  br i1 %cmp14, label %if.then15, label %if.end17

if.then15:                                        ; preds = %if.end13
  %22 = load ptr, ptr %newfd.addr, align 8
  %23 = load i32, ptr %22, align 4
  %call16 = call i32 @close(i32 noundef %23)
  br label %if.end17

if.end17:                                         ; preds = %if.then15, %if.end13
  store i32 2, ptr %family, align 4
  br label %if.end18

if.end18:                                         ; preds = %if.end17, %entry
  %24 = load i32, ptr %family, align 4
  %cmp19 = icmp eq i32 %24, 2
  %cond = select i1 %cmp19, i32 1, i32 0
  %25 = load ptr, ptr %dsmode.addr, align 8
  store i32 %cond, ptr %25, align 4
  %26 = load ptr, ptr %factory.addr, align 8
  %27 = load i32, ptr %family, align 4
  %28 = load i32, ptr %type.addr, align 4
  %29 = load i32, ptr %protocol.addr, align 4
  %call20 = call noundef i32 @_ZL13create_socketP19grpc_socket_factoryiii(ptr noundef %26, i32 noundef %27, i32 noundef %28, i32 noundef %29)
  %30 = load ptr, ptr %newfd.addr, align 8
  store i32 %call20, ptr %30, align 4
  %31 = load ptr, ptr %newfd.addr, align 8
  %32 = load i32, ptr %31, align 4
  %33 = load ptr, ptr %resolved_addr.addr, align 8
  call void @_ZL12error_for_fdiPK21grpc_resolved_address(ptr sret(%"class.absl::lts_20230802::Status") align 8 %agg.result, i32 noundef %32, ptr noundef %33)
  br label %return

return:                                           ; preds = %if.end18, %if.then12, %if.then8
  ret void
}