; Function Attrs: mustprogress uwtable
define void @_Z42grpc_create_dualstack_socket_using_factoryP19grpc_socket_factoryPK21grpc_resolved_addressiiP19grpc_dualstack_modePi(ptr noalias sret(%"class.absl::lts_20230802::Status") align 8 %agg.result, ptr noundef %factory, ptr noundef %resolved_addr, i32 noundef %type, i32 noundef %protocol, ptr nocapture noundef writeonly %dsmode, ptr nocapture noundef %newfd) local_unnamed_addr #3 {
entry:
  %0 = load i16, ptr %resolved_addr, align 2
  %conv = zext i16 %0 to i32
  %cmp = icmp eq i16 %0, 10
  br i1 %cmp, label %if.then, label %if.end18

if.then:                                          ; preds = %entry
  tail call void @gpr_once_init(ptr noundef nonnull @_ZL17g_probe_ipv6_once, ptr noundef nonnull @_ZL15probe_ipv6_oncev)
  %.b.i = load i1, ptr @_ZL25g_ipv6_loopback_available, align 4
  br i1 %.b.i, label %if.then2, label %if.else

if.then2:                                         ; preds = %if.then
  %call3 = tail call fastcc noundef i32 @_ZL13create_socketP19grpc_socket_factoryiii(ptr noundef %factory, i32 noundef 10, i32 noundef %type, i32 noundef %protocol)
  store i32 %call3, ptr %newfd, align 4
  br label %if.end

if.else:                                          ; preds = %if.then
  store i32 -1, ptr %newfd, align 4
  %call4 = tail call ptr @__errno_location() #17
  store i32 97, ptr %call4, align 4
  %.pr = load i32, ptr %newfd, align 4
  br label %if.end

if.end:                                           ; preds = %if.else, %if.then2
  %1 = phi i32 [ %.pr, %if.else ], [ %call3, %if.then2 ]
  %cmp5 = icmp sgt i32 %1, -1
  br i1 %cmp5, label %land.lhs.true, label %if.end9

land.lhs.true:                                    ; preds = %if.end
  %call6 = tail call noundef i32 @_Z25grpc_set_socket_dualstacki(i32 noundef %1)
  %tobool7.not = icmp eq i32 %call6, 0
  br i1 %tobool7.not, label %if.end9, label %if.then8

if.then8:                                         ; preds = %land.lhs.true
  store i32 3, ptr %dsmode, align 4
  store i64 0, ptr %agg.result, align 8, !alias.scope !75
  br label %return

if.end9:                                          ; preds = %land.lhs.true, %if.end
  %call10 = tail call noundef i32 @_Z25grpc_sockaddr_is_v4mappedPK21grpc_resolved_addressPS_(ptr noundef nonnull %resolved_addr, ptr noundef null)
  %tobool11.not = icmp eq i32 %call10, 0
  br i1 %tobool11.not, label %if.then12, label %if.end13

if.then12:                                        ; preds = %if.end9
  store i32 2, ptr %dsmode, align 4
  %2 = load i32, ptr %newfd, align 4
  tail call fastcc void @_ZL12error_for_fdiPK21grpc_resolved_address(ptr noalias align 8 %agg.result, i32 noundef %2, ptr noundef nonnull %resolved_addr)
  br label %return

if.end13:                                         ; preds = %if.end9
  %3 = load i32, ptr %newfd, align 4
  %cmp14 = icmp sgt i32 %3, -1
  br i1 %cmp14, label %if.then15, label %if.end18

if.then15:                                        ; preds = %if.end13
  %call16 = tail call i32 @close(i32 noundef %3)
  br label %if.end18

if.end18:                                         ; preds = %if.end13, %if.then15, %entry
  %family.0 = phi i32 [ %conv, %entry ], [ 2, %if.then15 ], [ 2, %if.end13 ]
  %cmp19 = icmp eq i32 %family.0, 2
  %cond = zext i1 %cmp19 to i32
  store i32 %cond, ptr %dsmode, align 4
  %call20 = tail call fastcc noundef i32 @_ZL13create_socketP19grpc_socket_factoryiii(ptr noundef %factory, i32 noundef %family.0, i32 noundef %type, i32 noundef %protocol)
  store i32 %call20, ptr %newfd, align 4
  tail call fastcc void @_ZL12error_for_fdiPK21grpc_resolved_address(ptr noalias align 8 %agg.result, i32 noundef %call20, ptr noundef nonnull %resolved_addr)
  br label %return

return:                                           ; preds = %if.end18, %if.then12, %if.then8
  ret void
}